target datalayout = "e-m:e-p270:32:32-p271:32:32-p272:64:64-i64:64-i128:128-f80:128-n8:16:32:64-S128"
target triple = "x86_64-pc-linux-gnu"

%struct.ndef_aux_st = type { ptr, ptr, ptr, ptr, ptr, ptr }

@.str = private unnamed_addr constant [34 x i8] c"../openssl/crypto/asn1/bio_ndef.c\00", align 1

; Function Attrs: nounwind uwtable
define internal i32 @ndef_prefix(ptr noundef %0, ptr noundef %1, ptr noundef %2, ptr noundef %3) #0 {
  %5 = alloca i32, align 4
  %6 = alloca ptr, align 8
  %7 = alloca ptr, align 8
  %8 = alloca ptr, align 8
  %9 = alloca ptr, align 8
  %10 = alloca ptr, align 8
  %11 = alloca ptr, align 8
  %12 = alloca i32, align 4
  %13 = alloca i32, align 4
  store ptr %0, ptr %6, align 8, !tbaa !3
  store ptr %1, ptr %7, align 8, !tbaa !35
  store ptr %2, ptr %8, align 8, !tbaa !36
  store ptr %3, ptr %9, align 8, !tbaa !38
  call void @llvm.lifetime.start.p0(i64 8, ptr %10) #3
  call void @llvm.lifetime.start.p0(i64 8, ptr %11) #3
  call void @llvm.lifetime.start.p0(i64 4, ptr %12) #3
  %14 = load ptr, ptr %9, align 8, !tbaa !38
  %15 = icmp eq ptr %14, null
  br i1 %15, label %16, label %17

16:                                               ; preds = %4
  store i32 0, ptr %5, align 4
  store i32 1, ptr %13, align 4
  br label %67

17:                                               ; preds = %4
  %18 = load ptr, ptr %9, align 8, !tbaa !38
  %19 = load ptr, ptr %18, align 8, !tbaa !12
  store ptr %19, ptr %10, align 8, !tbaa !12
  %20 = load ptr, ptr %10, align 8, !tbaa !12
  %21 = getelementptr inbounds nuw %struct.ndef_aux_st, ptr %20, i32 0, i32 0
  %22 = load ptr, ptr %21, align 8, !tbaa !29
  %23 = load ptr, ptr %10, align 8, !tbaa !12
  %24 = getelementptr inbounds nuw %struct.ndef_aux_st, ptr %23, i32 0, i32 1
  %25 = load ptr, ptr %24, align 8, !tbaa !31
  %26 = call i32 @ASN1_item_ndef_i2d(ptr noundef %22, ptr noundef null, ptr noundef %25)
  store i32 %26, ptr %12, align 4, !tbaa !39
  %27 = load i32, ptr %12, align 4, !tbaa !39
  %28 = icmp slt i32 %27, 0
  br i1 %28, label %29, label %30

29:                                               ; preds = %17
  store i32 0, ptr %5, align 4
  store i32 1, ptr %13, align 4
  br label %67

30:                                               ; preds = %17
  %31 = load i32, ptr %12, align 4, !tbaa !39
  %32 = sext i32 %31 to i64
  %33 = call noalias ptr @CRYPTO_malloc(i64 noundef %32, ptr noundef @.str, i32 noundef 143)
  store ptr %33, ptr %11, align 8, !tbaa !40
  %34 = icmp eq ptr %33, null
  br i1 %34, label %35, label %36

35:                                               ; preds = %30
  store i32 0, ptr %5, align 4
  store i32 1, ptr %13, align 4
  br label %67

36:                                               ; preds = %30
  %37 = load ptr, ptr %11, align 8, !tbaa !40
  %38 = load ptr, ptr %10, align 8, !tbaa !12
  %39 = getelementptr inbounds nuw %struct.ndef_aux_st, ptr %38, i32 0, i32 5
  store ptr %37, ptr %39, align 8, !tbaa !41
  %40 = load ptr, ptr %11, align 8, !tbaa !40
  %41 = load ptr, ptr %7, align 8, !tbaa !35
  store ptr %40, ptr %41, align 8, !tbaa !40
  %42 = load ptr, ptr %10, align 8, !tbaa !12
  %43 = getelementptr inbounds nuw %struct.ndef_aux_st, ptr %42, i32 0, i32 0
  %44 = load ptr, ptr %43, align 8, !tbaa !29
  %45 = load ptr, ptr %10, align 8, !tbaa !12
  %46 = getelementptr inbounds nuw %struct.ndef_aux_st, ptr %45, i32 0, i32 1
  %47 = load ptr, ptr %46, align 8, !tbaa !31
  %48 = call i32 @ASN1_item_ndef_i2d(ptr noundef %44, ptr noundef %11, ptr noundef %47)
  %49 = load ptr, ptr %10, align 8, !tbaa !12
  %50 = getelementptr inbounds nuw %struct.ndef_aux_st, ptr %49, i32 0, i32 4
  %51 = load ptr, ptr %50, align 8, !tbaa !33
  %52 = load ptr, ptr %51, align 8, !tbaa !40
  %53 = icmp eq ptr %52, null
  br i1 %53, label %54, label %55

54:                                               ; preds = %36
  store i32 0, ptr %5, align 4
  store i32 1, ptr %13, align 4
  br label %67

55:                                               ; preds = %36
  %56 = load ptr, ptr %10, align 8, !tbaa !12
  %57 = getelementptr inbounds nuw %struct.ndef_aux_st, ptr %56, i32 0, i32 4
  %58 = load ptr, ptr %57, align 8, !tbaa !33
  %59 = load ptr, ptr %58, align 8, !tbaa !40
  %60 = load ptr, ptr %7, align 8, !tbaa !35
  %61 = load ptr, ptr %60, align 8, !tbaa !40
  %62 = ptrtoint ptr %59 to i64
  %63 = ptrtoint ptr %61 to i64
  %64 = sub i64 %62, %63
  %65 = trunc i64 %64 to i32
  %66 = load ptr, ptr %8, align 8, !tbaa !36
  store i32 %65, ptr %66, align 4, !tbaa !39
  store i32 1, ptr %5, align 4
  store i32 1, ptr %13, align 4
  br label %67

67:                                               ; preds = %55, %54, %35, %29, %16
  call void @llvm.lifetime.end.p0(i64 4, ptr %12) #3
  call void @llvm.lifetime.end.p0(i64 8, ptr %11) #3
  call void @llvm.lifetime.end.p0(i64 8, ptr %10) #3
  %68 = load i32, ptr %5, align 4
  ret i32 %68
}