; Function Attrs: nounwind uwtable
define internal range(i32 0, 2) i32 @ndef_prefix(ptr readnone captures(none) %0, ptr noundef captures(none) %1, ptr noundef writeonly captures(none) %2, ptr noundef readonly captures(address_is_null) %3) #0 {
  %5 = alloca ptr, align 8
  call void @llvm.lifetime.start.p0(i64 8, ptr nonnull %5) #4
  %6 = icmp eq ptr %3, null
  br i1 %6, label %33, label %7

7:                                                ; preds = %4
  %8 = load ptr, ptr %3, align 8, !tbaa !29
  %9 = load ptr, ptr %8, align 8, !tbaa !20
  %10 = getelementptr inbounds nuw i8, ptr %8, i64 8
  %11 = load ptr, ptr %10, align 8, !tbaa !23
  %12 = tail call i32 @ASN1_item_ndef_i2d(ptr noundef %9, ptr noundef null, ptr noundef %11) #4
  %13 = icmp slt i32 %12, 0
  br i1 %13, label %33, label %14

14:                                               ; preds = %7
  %15 = zext nneg i32 %12 to i64
  %16 = tail call noalias ptr @CRYPTO_malloc(i64 noundef %15, ptr noundef nonnull @.str, i32 noundef 143) #4
  store ptr %16, ptr %5, align 8, !tbaa !31
  %17 = icmp eq ptr %16, null
  br i1 %17, label %33, label %18

18:                                               ; preds = %14
  %19 = getelementptr inbounds nuw i8, ptr %8, i64 40
  store ptr %16, ptr %19, align 8, !tbaa !32
  store ptr %16, ptr %1, align 8, !tbaa !31
  %20 = load ptr, ptr %8, align 8, !tbaa !20
  %21 = load ptr, ptr %10, align 8, !tbaa !23
  %22 = call i32 @ASN1_item_ndef_i2d(ptr noundef %20, ptr noundef nonnull %5, ptr noundef %21) #4
  %23 = getelementptr inbounds nuw i8, ptr %8, i64 32
  %24 = load ptr, ptr %23, align 8, !tbaa !27
  %25 = load ptr, ptr %24, align 8, !tbaa !31
  %26 = icmp eq ptr %25, null
  br i1 %26, label %33, label %27

27:                                               ; preds = %18
  %28 = load ptr, ptr %1, align 8, !tbaa !31
  %29 = ptrtoint ptr %25 to i64
  %30 = ptrtoint ptr %28 to i64
  %31 = sub i64 %29, %30
  %32 = trunc i64 %31 to i32
  store i32 %32, ptr %2, align 4, !tbaa !33
  br label %33

33:                                               ; preds = %18, %14, %7, %4, %27
  %.0 = phi i32 [ 1, %27 ], [ 0, %4 ], [ 0, %7 ], [ 0, %14 ], [ 0, %18 ]
  call void @llvm.lifetime.end.p0(i64 8, ptr nonnull %5) #4
  ret i32 %.0
}